; Function Attrs: nounwind uwtable
define hidden i32 @nghttp2_hd_emit_table_size(ptr noundef %0, i64 noundef %1) local_unnamed_addr #0 {
  %3 = alloca [16 x i8], align 16
  call void @llvm.lifetime.start.p0(i64 16, ptr nonnull %3) #12
  %4 = icmp ult i64 %1, 31
  br i1 %4, label %12, label %5

5:                                                ; preds = %2
  %6 = add i64 %1, -31
  %7 = icmp ugt i64 %6, 127
  br i1 %7, label %.lr.ph.i.i, label %15

.lr.ph.i.i:                                       ; preds = %5, %.lr.ph.i.i
  %.016.i.i = phi i64 [ %9, %.lr.ph.i.i ], [ 1, %5 ]
  %.01215.i.i = phi i64 [ %8, %.lr.ph.i.i ], [ %6, %5 ]
  %8 = lshr i64 %.01215.i.i, 7
  %9 = add nuw nsw i64 %.016.i.i, 1
  %10 = icmp ugt i64 %.01215.i.i, 16383
  br i1 %10, label %.lr.ph.i.i, label %count_encoded_length.exit.i, !llvm.loop !79

count_encoded_length.exit.i:                      ; preds = %.lr.ph.i.i
  %11 = icmp samesign ugt i64 %.016.i.i, 14
  br i1 %11, label %emit_table_size.exit, label %.lr.ph.i11.preheader.i

12:                                               ; preds = %2
  %13 = trunc nuw i64 %1 to i8
  %14 = or disjoint i8 %13, 32
  store i8 %14, ptr %3, align 16, !tbaa !11
  br label %encode_length.exit.i

15:                                               ; preds = %5
  store i8 63, ptr %3, align 16, !tbaa !11
  %.02428.i.i = getelementptr inbounds nuw i8, ptr %3, i64 1
  br label %._crit_edge.i.i

.lr.ph.i11.preheader.i:                           ; preds = %count_encoded_length.exit.i
  store i8 63, ptr %3, align 16, !tbaa !11
  %.02428.i22.i = getelementptr inbounds nuw i8, ptr %3, i64 1
  br label %.lr.ph.i11.i

.lr.ph.i11.i:                                     ; preds = %.lr.ph.i11.i, %.lr.ph.i11.preheader.i
  %.02430.i.i = phi ptr [ %.024.i.i, %.lr.ph.i11.i ], [ %.02428.i22.i, %.lr.ph.i11.preheader.i ]
  %.02529.i.i = phi i64 [ %18, %.lr.ph.i11.i ], [ %6, %.lr.ph.i11.preheader.i ]
  %16 = trunc i64 %.02529.i.i to i8
  %17 = or i8 %16, -128
  store i8 %17, ptr %.02430.i.i, align 1, !tbaa !11
  %18 = lshr i64 %.02529.i.i, 7
  %.024.i.i = getelementptr inbounds nuw i8, ptr %.02430.i.i, i64 1
  %19 = icmp ugt i64 %.02529.i.i, 16383
  br i1 %19, label %.lr.ph.i11.i, label %._crit_edge.i.i.loopexit, !llvm.loop !80

._crit_edge.i.i.loopexit:                         ; preds = %.lr.ph.i11.i
  %20 = add nuw nsw i64 %.016.i.i, 2
  br label %._crit_edge.i.i

._crit_edge.i.i:                                  ; preds = %._crit_edge.i.i.loopexit, %15
  %.011.i131623.i = phi i64 [ 2, %15 ], [ %20, %._crit_edge.i.i.loopexit ]
  %.025.lcssa.i.i = phi i64 [ %6, %15 ], [ %18, %._crit_edge.i.i.loopexit ]
  %.024.lcssa.i.i = phi ptr [ %.02428.i.i, %15 ], [ %.024.i.i, %._crit_edge.i.i.loopexit ]
  %21 = trunc nuw nsw i64 %.025.lcssa.i.i to i8
  store i8 %21, ptr %.024.lcssa.i.i, align 1, !tbaa !11
  br label %encode_length.exit.i

encode_length.exit.i:                             ; preds = %._crit_edge.i.i, %12
  %.011.i1315.i = phi i64 [ 1, %12 ], [ %.011.i131623.i, %._crit_edge.i.i ]
  %22 = call i32 @nghttp2_bufs_add(ptr noundef %0, ptr noundef nonnull %3, i64 noundef %.011.i1315.i) #12
  br label %emit_table_size.exit

emit_table_size.exit:                             ; preds = %count_encoded_length.exit.i, %encode_length.exit.i
  %.0.i = phi i32 [ -523, %count_encoded_length.exit.i ], [ %22, %encode_length.exit.i ]
  call void @llvm.lifetime.end.p0(i64 16, ptr nonnull %3) #12
  ret i32 %.0.i
}